target datalayout = "e-m:e-p270:32:32-p271:32:32-p272:64:64-i64:64-i128:128-f80:128-n8:16:32:64-S128"
target triple = "x86_64-pc-linux-gnu"

; Function Attrs: nounwind uwtable
define i32 @BIO_sock_error(i32 noundef %0) #0 {
  %2 = alloca i32, align 4
  %3 = alloca i32, align 4
  %4 = alloca i32, align 4
  %5 = alloca i32, align 4
  %6 = alloca i32, align 4
  %7 = alloca i32, align 4
  store i32 %0, ptr %3, align 4, !tbaa !10
  call void @llvm.lifetime.start.p0(i64 4, ptr %4) #8
  store i32 0, ptr %4, align 4, !tbaa !10
  call void @llvm.lifetime.start.p0(i64 4, ptr %5) #8
  call void @llvm.lifetime.start.p0(i64 4, ptr %6) #8
  store i32 4, ptr %6, align 4, !tbaa !10
  %8 = load i32, ptr %3, align 4, !tbaa !10
  %9 = call i32 @getsockopt(i32 noundef %8, i32 noundef 1, i32 noundef 4, ptr noundef %4, ptr noundef %6) #8
  store i32 %9, ptr %5, align 4, !tbaa !10
  %10 = load i32, ptr %5, align 4, !tbaa !10
  %11 = icmp slt i32 %10, 0
  br i1 %11, label %12, label %15

12:                                               ; preds = %1
  %13 = call ptr @__errno_location() #9
  %14 = load i32, ptr %13, align 4, !tbaa !10
  store i32 %14, ptr %2, align 4
  store i32 1, ptr %7, align 4
  br label %17

15:                                               ; preds = %1
  %16 = load i32, ptr %4, align 4, !tbaa !10
  store i32 %16, ptr %2, align 4
  store i32 1, ptr %7, align 4
  br label %17

17:                                               ; preds = %15, %12
  call void @llvm.lifetime.end.p0(i64 4, ptr %6) #8
  call void @llvm.lifetime.end.p0(i64 4, ptr %5) #8
  call void @llvm.lifetime.end.p0(i64 4, ptr %4) #8
  %18 = load i32, ptr %2, align 4
  ret i32 %18
}