; Function Attrs: nounwind uwtable
define i32 @BIO_sock_error(i32 noundef %0) local_unnamed_addr #0 {
  %2 = alloca i32, align 4
  %3 = alloca i32, align 4
  call void @llvm.lifetime.start.p0(i64 4, ptr nonnull %2) #9
  store i32 0, ptr %2, align 4, !tbaa !11
  call void @llvm.lifetime.start.p0(i64 4, ptr nonnull %3) #9
  store i32 4, ptr %3, align 4, !tbaa !11
  %4 = call i32 @getsockopt(i32 noundef %0, i32 noundef 1, i32 noundef 4, ptr noundef nonnull %2, ptr noundef nonnull %3) #9
  %5 = icmp slt i32 %4, 0
  br i1 %5, label %6, label %8

6:                                                ; preds = %1
  %7 = tail call ptr @__errno_location() #10
  br label %8

8:                                                ; preds = %1, %6
  %.0.in = phi ptr [ %7, %6 ], [ %2, %1 ]
  %.0 = load i32, ptr %.0.in, align 4, !tbaa !11
  call void @llvm.lifetime.end.p0(i64 4, ptr nonnull %3) #9
  call void @llvm.lifetime.end.p0(i64 4, ptr nonnull %2) #9
  ret i32 %.0
}